target datalayout = "e-m:e-p270:32:32-p271:32:32-p272:64:64-i64:64-i128:128-f80:128-n8:16:32:64-S128"
target triple = "x86_64-pc-linux-gnu"

%"class.nix::PosIdx" = type { i32 }
%"class.nlohmann::basic_json" = type { i8, %"union.nlohmann::basic_json<>::json_value" }
%"union.nlohmann::basic_json<>::json_value" = type { ptr }

; Function Attrs: mustprogress uwtable
define void @_ZN3nix16printValueAsJSONERNS_9EvalStateEbRNS_5ValueENS_6PosIdxERSoRSt3setINS_20NixStringContextElemESt4lessIS7_ESaIS7_EEb(ptr noundef nonnull align 8 dereferenceable(1248) %0, i1 noundef zeroext %1, ptr noundef nonnull align 8 dereferenceable(24) %2, i32 %3, ptr noundef nonnull align 8 dereferenceable(8) %4, ptr noundef nonnull align 8 dereferenceable(48) %5, i1 noundef zeroext %6) #5 personality ptr @__gxx_personality_v0 {
  %8 = alloca %"class.nix::PosIdx", align 4
  %9 = alloca ptr, align 8
  %10 = alloca i8, align 1
  %11 = alloca ptr, align 8
  %12 = alloca ptr, align 8
  %13 = alloca ptr, align 8
  %14 = alloca i8, align 1
  %15 = alloca %"class.nlohmann::basic_json", align 8
  %16 = alloca %"class.nix::PosIdx", align 4
  %17 = alloca ptr, align 8
  %18 = alloca i32, align 4
  %19 = getelementptr inbounds %"class.nix::PosIdx", ptr %8, i32 0, i32 0
  store i32 %3, ptr %19, align 4
  store ptr %0, ptr %9, align 8
  %20 = zext i1 %1 to i8
  store i8 %20, ptr %10, align 1
  store ptr %2, ptr %11, align 8
  store ptr %4, ptr %12, align 8
  store ptr %5, ptr %13, align 8
  %21 = zext i1 %6 to i8
  store i8 %21, ptr %14, align 1
  %22 = load ptr, ptr %12, align 8
  %23 = load ptr, ptr %9, align 8
  %24 = load i8, ptr %10, align 1
  %25 = trunc i8 %24 to i1
  %26 = load ptr, ptr %11, align 8
  call void @llvm.memcpy.p0.p0.i64(ptr align 4 %16, ptr align 4 %8, i64 4, i1 false)
  %27 = load ptr, ptr %13, align 8
  %28 = load i8, ptr %14, align 1
  %29 = trunc i8 %28 to i1
  %30 = getelementptr inbounds %"class.nix::PosIdx", ptr %16, i32 0, i32 0
  %31 = load i32, ptr %30, align 4
  call void @_ZN3nix16printValueAsJSONB5cxx11ERNS_9EvalStateEbRNS_5ValueENS_6PosIdxERSt3setINS_20NixStringContextElemESt4lessIS6_ESaIS6_EEb(ptr dead_on_unwind writable sret(%"class.nlohmann::basic_json") align 8 %15, ptr noundef nonnull align 8 dereferenceable(1248) %23, i1 noundef zeroext %25, ptr noundef nonnull align 8 dereferenceable(24) %26, i32 %31, ptr noundef nonnull align 8 dereferenceable(48) %27, i1 noundef zeroext %29)
  %32 = invoke noundef nonnull align 8 dereferenceable(8) ptr @_ZN8nlohmannlsERSoRKNS_10basic_jsonISt3mapSt6vectorNSt7__cxx1112basic_stringIcSt11char_traitsIcESaIcEEEblmdSaNS_14adl_serializerES3_IhSaIhEEEE(ptr noundef nonnull align 8 dereferenceable(8) %22, ptr noundef nonnull align 8 dereferenceable(16) %15)
          to label %33 unwind label %34

33:                                               ; preds = %7
  call void @_ZN8nlohmann10basic_jsonISt3mapSt6vectorNSt7__cxx1112basic_stringIcSt11char_traitsIcESaIcEEEblmdSaNS_14adl_serializerES2_IhSaIhEEED2Ev(ptr noundef nonnull align 8 dereferenceable(16) %15) #1
  ret void

34:                                               ; preds = %7
  %35 = landingpad { ptr, i32 }
          cleanup
  %36 = extractvalue { ptr, i32 } %35, 0
  store ptr %36, ptr %17, align 8
  %37 = extractvalue { ptr, i32 } %35, 1
  store i32 %37, ptr %18, align 4
  call void @_ZN8nlohmann10basic_jsonISt3mapSt6vectorNSt7__cxx1112basic_stringIcSt11char_traitsIcESaIcEEEblmdSaNS_14adl_serializerES2_IhSaIhEEED2Ev(ptr noundef nonnull align 8 dereferenceable(16) %15) #1
  br label %38

38:                                               ; preds = %34
  %39 = load ptr, ptr %17, align 8
  %40 = load i32, ptr %18, align 4
  %41 = insertvalue { ptr, i32 } poison, ptr %39, 0
  %42 = insertvalue { ptr, i32 } %41, i32 %40, 1
  resume { ptr, i32 } %42
}