; Function Attrs: mustprogress uwtable
define void @_ZN3nix16printValueAsJSONERNS_9EvalStateEbRNS_5ValueENS_6PosIdxERSoRSt3setINS_20NixStringContextElemESt4lessIS7_ESaIS7_EEb(ptr noundef nonnull align 8 dereferenceable(1248) %0, i1 noundef zeroext %1, ptr noundef nonnull align 8 dereferenceable(24) %2, i32 %3, ptr noundef nonnull align 8 dereferenceable(8) %4, ptr noundef nonnull align 8 dereferenceable(48) %5, i1 noundef zeroext %6) local_unnamed_addr #7 personality ptr @__gxx_personality_v0 {
  %8 = alloca %"class.nlohmann::basic_json", align 8
  call void @_ZN3nix16printValueAsJSONB5cxx11ERNS_9EvalStateEbRNS_5ValueENS_6PosIdxERSt3setINS_20NixStringContextElemESt4lessIS6_ESaIS6_EEb(ptr dead_on_unwind nonnull writable sret(%"class.nlohmann::basic_json") align 8 %8, ptr noundef nonnull align 8 dereferenceable(1248) %0, i1 noundef zeroext %1, ptr noundef nonnull align 8 dereferenceable(24) %2, i32 %3, ptr noundef nonnull align 8 dereferenceable(48) %5, i1 noundef zeroext %6)
  %9 = invoke noundef nonnull align 8 dereferenceable(8) ptr @_ZN8nlohmannlsERSoRKNS_10basic_jsonISt3mapSt6vectorNSt7__cxx1112basic_stringIcSt11char_traitsIcESaIcEEEblmdSaNS_14adl_serializerES3_IhSaIhEEEE(ptr noundef nonnull align 8 dereferenceable(8) %4, ptr noundef nonnull align 8 dereferenceable(16) %8)
          to label %10 unwind label %16

10:                                               ; preds = %7
  %11 = getelementptr inbounds i8, ptr %8, i64 8
  %12 = load i8, ptr %8, align 8
  invoke void @_ZN8nlohmann10basic_jsonISt3mapSt6vectorNSt7__cxx1112basic_stringIcSt11char_traitsIcESaIcEEEblmdSaNS_14adl_serializerES2_IhSaIhEEE10json_value7destroyENS_6detail7value_tE(ptr noundef nonnull align 8 dereferenceable(8) %11, i8 noundef zeroext %12) #31
          to label %_ZN8nlohmann10basic_jsonISt3mapSt6vectorNSt7__cxx1112basic_stringIcSt11char_traitsIcESaIcEEEblmdSaNS_14adl_serializerES2_IhSaIhEEED2Ev.exit unwind label %13

13:                                               ; preds = %10
  %14 = landingpad { ptr, i32 }
          catch ptr null
  %15 = extractvalue { ptr, i32 } %14, 0
  call void @__clang_call_terminate(ptr %15) #30
  unreachable

_ZN8nlohmann10basic_jsonISt3mapSt6vectorNSt7__cxx1112basic_stringIcSt11char_traitsIcESaIcEEEblmdSaNS_14adl_serializerES2_IhSaIhEEED2Ev.exit: ; preds = %10
  ret void

16:                                               ; preds = %7
  %17 = landingpad { ptr, i32 }
          cleanup
  call void @_ZN8nlohmann10basic_jsonISt3mapSt6vectorNSt7__cxx1112basic_stringIcSt11char_traitsIcESaIcEEEblmdSaNS_14adl_serializerES2_IhSaIhEEED2Ev(ptr noundef nonnull align 8 dereferenceable(16) %8) #28
  resume { ptr, i32 } %17
}